target datalayout = "e-m:e-p270:32:32-p271:32:32-p272:64:64-i64:64-i128:128-f80:128-n8:16:32:64-S128"
target triple = "x86_64-pc-linux-gnu"

%struct.cmsysProcess_s = type { ptr, i32, [3 x i32], [3 x i32], i32, [1024 x i8], ptr, i32, double, ptr, i32, i32, i32, i32, i32, %struct.kwsysProcessTime_s, %struct.kwsysProcessTime_s, i32, i32, %struct.fd_set, i32, i32, i32, [1025 x i8], ptr, ptr, ptr, ptr, ptr, i32, i32, i32, [2 x i32], [2 x i32], [2 x i32], i32, ptr }
%struct.kwsysProcessTime_s = type { i64, i64 }
%struct.fd_set = type { [16 x i64] }
%struct.kwsysProcessResults_s = type { i32, i32, i32, i32, [1025 x i8] }

@.str.2 = private unnamed_addr constant [65 x i8] c"GetExceptionString called with NULL process management structure\00", align 1
@.str.3 = private unnamed_addr constant [13 x i8] c"No exception\00", align 1

; Function Attrs: nounwind uwtable
define dso_local ptr @cmsysProcess_GetExceptionString(ptr noundef %0) #0 {
  %2 = alloca ptr, align 8
  %3 = alloca ptr, align 8
  store ptr %0, ptr %3, align 8, !tbaa !4
  %4 = load ptr, ptr %3, align 8, !tbaa !4
  %5 = icmp ne ptr %4, null
  br i1 %5, label %6, label %16

6:                                                ; preds = %1
  %7 = load ptr, ptr %3, align 8, !tbaa !4
  %8 = getelementptr inbounds nuw %struct.cmsysProcess_s, ptr %7, i32 0, i32 24
  %9 = load ptr, ptr %8, align 8, !tbaa !24
  %10 = icmp ne ptr %9, null
  br i1 %10, label %11, label %16

11:                                               ; preds = %6
  %12 = load ptr, ptr %3, align 8, !tbaa !4
  %13 = getelementptr inbounds nuw %struct.cmsysProcess_s, ptr %12, i32 0, i32 1
  %14 = load volatile i32, ptr %13, align 8, !tbaa !32
  %15 = icmp sgt i32 %14, 0
  br i1 %15, label %17, label %16

16:                                               ; preds = %11, %6, %1
  store ptr @.str.2, ptr %2, align 8
  br label %35

17:                                               ; preds = %11
  %18 = load ptr, ptr %3, align 8, !tbaa !4
  %19 = getelementptr inbounds nuw %struct.cmsysProcess_s, ptr %18, i32 0, i32 21
  %20 = load volatile i32, ptr %19, align 4, !tbaa !21
  %21 = icmp eq i32 %20, 2
  br i1 %21, label %22, label %34

22:                                               ; preds = %17
  %23 = load ptr, ptr %3, align 8, !tbaa !4
  %24 = getelementptr inbounds nuw %struct.cmsysProcess_s, ptr %23, i32 0, i32 24
  %25 = load ptr, ptr %24, align 8, !tbaa !24
  %26 = load ptr, ptr %3, align 8, !tbaa !4
  %27 = getelementptr inbounds nuw %struct.cmsysProcess_s, ptr %26, i32 0, i32 1
  %28 = load volatile i32, ptr %27, align 8, !tbaa !32
  %29 = sub nsw i32 %28, 1
  %30 = sext i32 %29 to i64
  %31 = getelementptr inbounds %struct.kwsysProcessResults_s, ptr %25, i64 %30
  %32 = getelementptr inbounds nuw %struct.kwsysProcessResults_s, ptr %31, i32 0, i32 4
  %33 = getelementptr inbounds [1025 x i8], ptr %32, i64 0, i64 0
  store ptr %33, ptr %2, align 8
  br label %35

34:                                               ; preds = %17
  store ptr @.str.3, ptr %2, align 8
  br label %35

35:                                               ; preds = %34, %22, %16
  %36 = load ptr, ptr %2, align 8
  ret ptr %36
}