; Function Attrs: mustprogress nofree norecurse nounwind willreturn memory(argmem: readwrite, inaccessiblemem: readwrite) uwtable
define dso_local ptr @cmsysProcess_GetExceptionString(ptr noundef %0) local_unnamed_addr #11 {
  %.not = icmp eq ptr %0, null
  br i1 %.not, label %18, label %2

2:                                                ; preds = %1
  %3 = getelementptr inbounds nuw i8, ptr %0, i64 2328
  %4 = load ptr, ptr %3, align 8, !tbaa !32
  %.not8 = icmp eq ptr %4, null
  br i1 %.not8, label %18, label %5

5:                                                ; preds = %2
  %6 = getelementptr inbounds nuw i8, ptr %0, i64 8
  %7 = load volatile i32, ptr %6, align 8, !tbaa !22
  %8 = icmp sgt i32 %7, 0
  br i1 %8, label %9, label %18

9:                                                ; preds = %5
  %10 = getelementptr inbounds nuw i8, ptr %0, i64 1292
  %11 = load volatile i32, ptr %10, align 4, !tbaa !18
  %12 = icmp eq i32 %11, 2
  br i1 %12, label %13, label %18

13:                                               ; preds = %9
  %14 = load volatile i32, ptr %6, align 8, !tbaa !22
  %15 = sext i32 %14 to i64
  %16 = getelementptr %struct.kwsysProcessResults_s, ptr %4, i64 %15
  %17 = getelementptr i8, ptr %16, i64 -1028
  br label %18

18:                                               ; preds = %9, %1, %2, %5, %13
  %.0 = phi ptr [ %17, %13 ], [ @.str.2, %5 ], [ @.str.2, %2 ], [ @.str.2, %1 ], [ @.str.3, %9 ]
  ret ptr %.0
}